target datalayout = "e-m:e-p270:32:32-p271:32:32-p272:64:64-i64:64-i128:128-f80:128-n8:16:32:64-S128"
target triple = "x86_64-pc-linux-gnu"

%"class.icu_77::UnicodeString" = type { %"class.icu_77::Replaceable", %"union.icu_77::UnicodeString::StackBufferOrFields" }
%"class.icu_77::Replaceable" = type { %"class.icu_77::UObject" }
%"class.icu_77::UObject" = type { ptr }
%"union.icu_77::UnicodeString::StackBufferOrFields" = type { %struct.anon.0, [32 x i8] }
%struct.anon.0 = type { i16, i32, i32, ptr }
%"class.icu_77::NFRuleSet" = type <{ [8 x i8], %"class.icu_77::UnicodeString", %"class.icu_77::NFRuleList", [6 x ptr], ptr, %"class.icu_77::NFRuleList", i8, i8, i8, [5 x i8] }>
%"class.icu_77::NFRuleList" = type { ptr, i32, i32 }
%struct.anon = type { i16, [27 x i16] }
%"class.icu_77::NFRule" = type { i64, i32, i16, i16, %"class.icu_77::UnicodeString", ptr, ptr, ptr, ptr }
%"class.icu_77::DecimalFormatSymbols" = type <{ %"class.icu_77::UObject", [29 x %"class.icu_77::UnicodeString"], %"class.icu_77::UnicodeString", i32, [4 x i8], %"class.icu_77::Locale", ptr, ptr, ptr, [3 x %"class.icu_77::UnicodeString"], [3 x %"class.icu_77::UnicodeString"], i8, i8, [9 x i8], [5 x i8] }>
%"class.icu_77::Locale" = type <{ %"class.icu_77::UObject", [12 x i8], [6 x i8], [4 x i8], [2 x i8], i32, [4 x i8], ptr, [157 x i8], [3 x i8], ptr, i8, [7 x i8] }>

; Function Attrs: inlinehint mustprogress nounwind uwtable
define linkonce_odr noundef i32 @_ZNK6icu_7713UnicodeString14getShortLengthEv(ptr noundef nonnull align 8 dereferenceable(64) %0) #3 comdat align 2 {
  %2 = alloca ptr, align 8
  store ptr %0, ptr %2, align 8, !tbaa !10
  %3 = load ptr, ptr %2, align 8
  %4 = getelementptr inbounds nuw %"class.icu_77::UnicodeString", ptr %3, i32 0, i32 1
  %5 = getelementptr inbounds nuw %struct.anon.0, ptr %4, i32 0, i32 0
  %6 = load i16, ptr %5, align 8, !tbaa !35
  %7 = sext i16 %6 to i32
  %8 = ashr i32 %7, 5
  ret i32 %8
}

; Function Attrs: inlinehint mustprogress nounwind uwtable
define linkonce_odr noundef signext i8 @_ZNK6icu_7713UnicodeString14hasShortLengthEv(ptr noundef nonnull align 8 dereferenceable(64) %0) #3 comdat align 2 {
  %2 = alloca ptr, align 8
  store ptr %0, ptr %2, align 8, !tbaa !10
  %3 = load ptr, ptr %2, align 8
  %4 = getelementptr inbounds nuw %"class.icu_77::UnicodeString", ptr %3, i32 0, i32 1
  %5 = getelementptr inbounds nuw %struct.anon.0, ptr %4, i32 0, i32 0
  %6 = load i16, ptr %5, align 8, !tbaa !35
  %7 = sext i16 %6 to i32
  %8 = icmp sge i32 %7, 0
  %9 = zext i1 %8 to i8
  ret i8 %9
}

; Function Attrs: inlinehint mustprogress nounwind uwtable
define linkonce_odr noundef ptr @_ZNK6icu_7713UnicodeString13getArrayStartEv(ptr noundef nonnull align 8 dereferenceable(64) %0) #3 comdat align 2 {
  %2 = alloca ptr, align 8
  store ptr %0, ptr %2, align 8, !tbaa !10
  %3 = load ptr, ptr %2, align 8
  %4 = getelementptr inbounds nuw %"class.icu_77::UnicodeString", ptr %3, i32 0, i32 1
  %5 = getelementptr inbounds nuw %struct.anon.0, ptr %4, i32 0, i32 0
  %6 = load i16, ptr %5, align 8, !tbaa !35
  %7 = sext i16 %6 to i32
  %8 = and i32 %7, 2
  %9 = icmp ne i32 %8, 0
  br i1 %9, label %10, label %14

10:                                               ; preds = %1
  %11 = getelementptr inbounds nuw %"class.icu_77::UnicodeString", ptr %3, i32 0, i32 1
  %12 = getelementptr inbounds nuw %struct.anon, ptr %11, i32 0, i32 1
  %13 = getelementptr inbounds [27 x i16], ptr %12, i64 0, i64 0
  br label %18

14:                                               ; preds = %1
  %15 = getelementptr inbounds nuw %"class.icu_77::UnicodeString", ptr %3, i32 0, i32 1
  %16 = getelementptr inbounds nuw %struct.anon.0, ptr %15, i32 0, i32 3
  %17 = load ptr, ptr %16, align 8, !tbaa !35
  br label %18

18:                                               ; preds = %14, %10
  %19 = phi ptr [ %13, %10 ], [ %17, %14 ]
  ret ptr %19
}

; Function Attrs: inlinehint mustprogress uwtable
define linkonce_odr noundef i32 @_ZNK6icu_7713UnicodeString6lengthEv(ptr noundef nonnull align 8 dereferenceable(64) %0) #1 comdat align 2 {
  %2 = alloca ptr, align 8
  store ptr %0, ptr %2, align 8, !tbaa !10
  %3 = load ptr, ptr %2, align 8
  %4 = call noundef signext i8 @_ZNK6icu_7713UnicodeString14hasShortLengthEv(ptr noundef nonnull align 8 dereferenceable(64) %3)
  %5 = icmp ne i8 %4, 0
  br i1 %5, label %6, label %8

6:                                                ; preds = %1
  %7 = call noundef i32 @_ZNK6icu_7713UnicodeString14getShortLengthEv(ptr noundef nonnull align 8 dereferenceable(64) %3)
  br label %12

8:                                                ; preds = %1
  %9 = getelementptr inbounds nuw %"class.icu_77::UnicodeString", ptr %3, i32 0, i32 1
  %10 = getelementptr inbounds nuw %struct.anon.0, ptr %9, i32 0, i32 1
  %11 = load i32, ptr %10, align 4, !tbaa !35
  br label %12

12:                                               ; preds = %8, %6
  %13 = phi i32 [ %7, %6 ], [ %11, %8 ]
  ret i32 %13
}

; Function Attrs: inlinehint mustprogress uwtable
define linkonce_odr noundef zeroext i16 @_ZNK6icu_7713UnicodeString8doCharAtEi(ptr noundef nonnull align 8 dereferenceable(64) %0, i32 noundef %1) #1 comdat align 2 {
  %3 = alloca i16, align 2
  %4 = alloca ptr, align 8
  %5 = alloca i32, align 4
  store ptr %0, ptr %4, align 8, !tbaa !10
  store i32 %1, ptr %5, align 4, !tbaa !12
  %6 = load ptr, ptr %4, align 8
  %7 = load i32, ptr %5, align 4, !tbaa !12
  %8 = call noundef i32 @_ZNK6icu_7713UnicodeString6lengthEv(ptr noundef nonnull align 8 dereferenceable(64) %6)
  %9 = icmp ult i32 %7, %8
  br i1 %9, label %10, label %16

10:                                               ; preds = %2
  %11 = call noundef ptr @_ZNK6icu_7713UnicodeString13getArrayStartEv(ptr noundef nonnull align 8 dereferenceable(64) %6)
  %12 = load i32, ptr %5, align 4, !tbaa !12
  %13 = sext i32 %12 to i64
  %14 = getelementptr inbounds i16, ptr %11, i64 %13
  %15 = load i16, ptr %14, align 2, !tbaa !41
  store i16 %15, ptr %3, align 2
  br label %17

16:                                               ; preds = %2
  store i16 -1, ptr %3, align 2
  br label %17

17:                                               ; preds = %16, %10
  %18 = load i16, ptr %3, align 2
  ret i16 %18
}

; Function Attrs: mustprogress nounwind uwtable
define linkonce_odr noundef zeroext i16 @_ZNK6icu_776NFRule15getDecimalPointEv(ptr noundef nonnull align 8 dereferenceable(112) %0) #6 comdat align 2 {
  %2 = alloca ptr, align 8
  store ptr %0, ptr %2, align 8, !tbaa !26
  %3 = load ptr, ptr %2, align 8
  %4 = getelementptr inbounds nuw %"class.icu_77::NFRule", ptr %3, i32 0, i32 3
  %5 = load i16, ptr %4, align 2, !tbaa !66
  ret i16 %5
}

; Function Attrs: inlinehint mustprogress uwtable
define linkonce_odr noundef zeroext i16 @_ZNK6icu_7713UnicodeString6charAtEi(ptr noundef nonnull align 8 dereferenceable(64) %0, i32 noundef %1) #1 comdat align 2 {
  %3 = alloca ptr, align 8
  %4 = alloca i32, align 4
  store ptr %0, ptr %3, align 8, !tbaa !10
  store i32 %1, ptr %4, align 4, !tbaa !12
  %5 = load ptr, ptr %3, align 8
  %6 = load i32, ptr %4, align 4, !tbaa !12
  %7 = call noundef zeroext i16 @_ZNK6icu_7713UnicodeString8doCharAtEi(ptr noundef nonnull align 8 dereferenceable(64) %5, i32 noundef %6)
  ret i16 %7
}

; Function Attrs: inlinehint mustprogress uwtable
define linkonce_odr void @_ZNK6icu_7720DecimalFormatSymbols9getSymbolENS0_19ENumberFormatSymbolE(ptr dead_on_unwind noalias writable sret(%"class.icu_77::UnicodeString") align 8 %0, ptr noundef nonnull align 8 dereferenceable(2579) %1, i32 noundef %2) #1 comdat align 2 {
  %4 = alloca ptr, align 8
  %5 = alloca ptr, align 8
  %6 = alloca i32, align 4
  %7 = alloca ptr, align 8
  store ptr %0, ptr %4, align 8
  store ptr %1, ptr %5, align 8, !tbaa !62
  store i32 %2, ptr %6, align 4, !tbaa !64
  %8 = load ptr, ptr %5, align 8
  call void @llvm.lifetime.start.p0(i64 8, ptr %7) #12
  %9 = load i32, ptr %6, align 4, !tbaa !64
  %10 = icmp slt i32 %9, 29
  br i1 %10, label %11, label %16

11:                                               ; preds = %3
  %12 = getelementptr inbounds nuw %"class.icu_77::DecimalFormatSymbols", ptr %8, i32 0, i32 1
  %13 = load i32, ptr %6, align 4, !tbaa !64
  %14 = zext i32 %13 to i64
  %15 = getelementptr inbounds nuw [29 x %"class.icu_77::UnicodeString"], ptr %12, i64 0, i64 %14
  store ptr %15, ptr %7, align 8, !tbaa !10
  br label %18

16:                                               ; preds = %3
  %17 = getelementptr inbounds nuw %"class.icu_77::DecimalFormatSymbols", ptr %8, i32 0, i32 2
  store ptr %17, ptr %7, align 8, !tbaa !10
  br label %18

18:                                               ; preds = %16, %11
  %19 = load ptr, ptr %7, align 8, !tbaa !10
  call void @_ZN6icu_7713UnicodeStringC1ERKS0_(ptr noundef nonnull align 8 dereferenceable(64) %0, ptr noundef nonnull align 8 dereferenceable(64) %19)
  call void @llvm.lifetime.end.p0(i64 8, ptr %7) #12
  ret void
}

; Function Attrs: mustprogress uwtable
define linkonce_odr void @_ZN6icu_7710NFRuleList3addEPNS_6NFRuleE(ptr noundef nonnull align 8 dereferenceable(16) %0, ptr noundef %1) #0 comdat align 2 {
  %3 = alloca ptr, align 8
  %4 = alloca ptr, align 8
  store ptr %0, ptr %3, align 8, !tbaa !36
  store ptr %1, ptr %4, align 8, !tbaa !26
  %5 = load ptr, ptr %3, align 8
  %6 = getelementptr inbounds nuw %"class.icu_77::NFRuleList", ptr %5, i32 0, i32 1
  %7 = load i32, ptr %6, align 8, !tbaa !39
  %8 = getelementptr inbounds nuw %"class.icu_77::NFRuleList", ptr %5, i32 0, i32 2
  %9 = load i32, ptr %8, align 4, !tbaa !40
  %10 = icmp eq i32 %7, %9
  br i1 %10, label %11, label %23

11:                                               ; preds = %2
  %12 = getelementptr inbounds nuw %"class.icu_77::NFRuleList", ptr %5, i32 0, i32 2
  %13 = load i32, ptr %12, align 4, !tbaa !40
  %14 = add i32 %13, 10
  store i32 %14, ptr %12, align 4, !tbaa !40
  %15 = getelementptr inbounds nuw %"class.icu_77::NFRuleList", ptr %5, i32 0, i32 0
  %16 = load ptr, ptr %15, align 8, !tbaa !38
  %17 = getelementptr inbounds nuw %"class.icu_77::NFRuleList", ptr %5, i32 0, i32 2
  %18 = load i32, ptr %17, align 4, !tbaa !40
  %19 = zext i32 %18 to i64
  %20 = mul i64 %19, 8
  %21 = call ptr @uprv_realloc_77(ptr noundef %16, i64 noundef %20) #15
  %22 = getelementptr inbounds nuw %"class.icu_77::NFRuleList", ptr %5, i32 0, i32 0
  store ptr %21, ptr %22, align 8, !tbaa !38
  br label %23

23:                                               ; preds = %11, %2
  %24 = getelementptr inbounds nuw %"class.icu_77::NFRuleList", ptr %5, i32 0, i32 0
  %25 = load ptr, ptr %24, align 8, !tbaa !38
  %26 = icmp ne ptr %25, null
  br i1 %26, label %27, label %36

27:                                               ; preds = %23
  %28 = load ptr, ptr %4, align 8, !tbaa !26
  %29 = getelementptr inbounds nuw %"class.icu_77::NFRuleList", ptr %5, i32 0, i32 0
  %30 = load ptr, ptr %29, align 8, !tbaa !38
  %31 = getelementptr inbounds nuw %"class.icu_77::NFRuleList", ptr %5, i32 0, i32 1
  %32 = load i32, ptr %31, align 8, !tbaa !39
  %33 = add i32 %32, 1
  store i32 %33, ptr %31, align 8, !tbaa !39
  %34 = zext i32 %32 to i64
  %35 = getelementptr inbounds nuw ptr, ptr %30, i64 %34
  store ptr %28, ptr %35, align 8, !tbaa !26
  br label %39

36:                                               ; preds = %23
  %37 = getelementptr inbounds nuw %"class.icu_77::NFRuleList", ptr %5, i32 0, i32 2
  store i32 0, ptr %37, align 4, !tbaa !40
  %38 = getelementptr inbounds nuw %"class.icu_77::NFRuleList", ptr %5, i32 0, i32 1
  store i32 0, ptr %38, align 8, !tbaa !39
  br label %39

39:                                               ; preds = %36, %27
  ret void
}

; Function Attrs: mustprogress uwtable
define void @_ZN6icu_779NFRuleSet19setBestFractionRuleEiPNS_6NFRuleEa(ptr noundef nonnull align 8 dereferenceable(163) %0, i32 noundef %1, ptr noundef %2, i8 noundef signext %3) #0 align 2 personality ptr @__gxx_personality_v0 {
  %5 = alloca ptr, align 8
  %6 = alloca i32, align 4
  %7 = alloca ptr, align 8
  %8 = alloca i8, align 1
  %9 = alloca ptr, align 8
  %10 = alloca ptr, align 8
  %11 = alloca %"class.icu_77::UnicodeString", align 8
  %12 = alloca ptr, align 8
  %13 = alloca i32, align 4
  store ptr %0, ptr %5, align 8, !tbaa !3
  store i32 %1, ptr %6, align 4, !tbaa !12
  store ptr %2, ptr %7, align 8, !tbaa !26
  store i8 %3, ptr %8, align 1, !tbaa !35
  %14 = load ptr, ptr %5, align 8
  %15 = load i8, ptr %8, align 1, !tbaa !35
  %16 = icmp ne i8 %15, 0
  br i1 %16, label %17, label %20

17:                                               ; preds = %4
  %18 = getelementptr inbounds nuw %"class.icu_77::NFRuleSet", ptr %14, i32 0, i32 5
  %19 = load ptr, ptr %7, align 8, !tbaa !26
  call void @_ZN6icu_7710NFRuleList3addEPNS_6NFRuleE(ptr noundef nonnull align 8 dereferenceable(16) %18, ptr noundef %19)
  br label %20

20:                                               ; preds = %17, %4
  call void @llvm.lifetime.start.p0(i64 8, ptr %9) #12
  %21 = getelementptr inbounds nuw %"class.icu_77::NFRuleSet", ptr %14, i32 0, i32 3
  %22 = load i32, ptr %6, align 4, !tbaa !12
  %23 = sext i32 %22 to i64
  %24 = getelementptr inbounds [6 x ptr], ptr %21, i64 0, i64 %23
  %25 = load ptr, ptr %24, align 8, !tbaa !26
  store ptr %25, ptr %9, align 8, !tbaa !26
  %26 = load ptr, ptr %9, align 8, !tbaa !26
  %27 = icmp eq ptr %26, null
  br i1 %27, label %28, label %34

28:                                               ; preds = %20
  %29 = load ptr, ptr %7, align 8, !tbaa !26
  %30 = getelementptr inbounds nuw %"class.icu_77::NFRuleSet", ptr %14, i32 0, i32 3
  %31 = load i32, ptr %6, align 4, !tbaa !12
  %32 = sext i32 %31 to i64
  %33 = getelementptr inbounds [6 x ptr], ptr %30, i64 0, i64 %32
  store ptr %29, ptr %33, align 8, !tbaa !26
  br label %58

34:                                               ; preds = %20
  call void @llvm.lifetime.start.p0(i64 8, ptr %10) #12
  %35 = getelementptr inbounds nuw %"class.icu_77::NFRuleSet", ptr %14, i32 0, i32 4
  %36 = load ptr, ptr %35, align 8, !tbaa !15
  %37 = call noundef ptr @_ZNK6icu_7721RuleBasedNumberFormat23getDecimalFormatSymbolsEv(ptr noundef nonnull align 8 dereferenceable(456) %36)
  store ptr %37, ptr %10, align 8, !tbaa !62
  call void @llvm.lifetime.start.p0(i64 64, ptr %11) #12
  %38 = load ptr, ptr %10, align 8, !tbaa !62
  call void @_ZNK6icu_7720DecimalFormatSymbols9getSymbolENS0_19ENumberFormatSymbolE(ptr dead_on_unwind writable sret(%"class.icu_77::UnicodeString") align 8 %11, ptr noundef nonnull align 8 dereferenceable(2579) %38, i32 noundef 0)
  %39 = invoke noundef zeroext i16 @_ZNK6icu_7713UnicodeString6charAtEi(ptr noundef nonnull align 8 dereferenceable(64) %11, i32 noundef 0)
          to label %40 unwind label %53

40:                                               ; preds = %34
  %41 = zext i16 %39 to i32
  %42 = load ptr, ptr %7, align 8, !tbaa !26
  %43 = invoke noundef zeroext i16 @_ZNK6icu_776NFRule15getDecimalPointEv(ptr noundef nonnull align 8 dereferenceable(112) %42)
          to label %44 unwind label %53

44:                                               ; preds = %40
  %45 = zext i16 %43 to i32
  %46 = icmp eq i32 %41, %45
  call void @_ZN6icu_7713UnicodeStringD1Ev(ptr noundef nonnull align 8 dereferenceable(64) %11) #12
  call void @llvm.lifetime.end.p0(i64 64, ptr %11) #12
  br i1 %46, label %47, label %57

47:                                               ; preds = %44
  %48 = load ptr, ptr %7, align 8, !tbaa !26
  %49 = getelementptr inbounds nuw %"class.icu_77::NFRuleSet", ptr %14, i32 0, i32 3
  %50 = load i32, ptr %6, align 4, !tbaa !12
  %51 = sext i32 %50 to i64
  %52 = getelementptr inbounds [6 x ptr], ptr %49, i64 0, i64 %51
  store ptr %48, ptr %52, align 8, !tbaa !26
  br label %57

53:                                               ; preds = %40, %34
  %54 = landingpad { ptr, i32 }
          cleanup
  %55 = extractvalue { ptr, i32 } %54, 0
  store ptr %55, ptr %12, align 8
  %56 = extractvalue { ptr, i32 } %54, 1
  store i32 %56, ptr %13, align 4
  call void @_ZN6icu_7713UnicodeStringD1Ev(ptr noundef nonnull align 8 dereferenceable(64) %11) #12
  call void @llvm.lifetime.end.p0(i64 64, ptr %11) #12
  call void @llvm.lifetime.end.p0(i64 8, ptr %10) #12
  call void @llvm.lifetime.end.p0(i64 8, ptr %9) #12
  br label %59

57:                                               ; preds = %47, %44
  call void @llvm.lifetime.end.p0(i64 8, ptr %10) #12
  br label %58

58:                                               ; preds = %57, %28
  call void @llvm.lifetime.end.p0(i64 8, ptr %9) #12
  ret void

59:                                               ; preds = %53
  %60 = load ptr, ptr %12, align 8
  %61 = load i32, ptr %13, align 4
  %62 = insertvalue { ptr, i32 } poison, ptr %60, 0
  %63 = insertvalue { ptr, i32 } %62, i32 %61, 1
  resume { ptr, i32 } %63
}