; Function Attrs: mustprogress uwtable
define void @_ZN6icu_779NFRuleSet19setBestFractionRuleEiPNS_6NFRuleEa(ptr noundef nonnull align 8 captures(none) dereferenceable(163) %0, i32 noundef %1, ptr noundef %2, i8 noundef signext %3) local_unnamed_addr #0 align 2 personality ptr @__gxx_personality_v0 {
  %5 = alloca %"class.icu_77::UnicodeString", align 8
  %.not = icmp eq i8 %3, 0
  br i1 %.not, label %27, label %6

6:                                                ; preds = %4
  %7 = getelementptr inbounds nuw i8, ptr %0, i64 144
  %8 = getelementptr inbounds nuw i8, ptr %0, i64 152
  %9 = load i32, ptr %8, align 8, !tbaa !20
  %10 = getelementptr inbounds nuw i8, ptr %0, i64 156
  %11 = load i32, ptr %10, align 4, !tbaa !21
  %12 = icmp eq i32 %9, %11
  br i1 %12, label %13, label %thread-pre-split.i

13:                                               ; preds = %6
  %14 = add i32 %9, 10
  store i32 %14, ptr %10, align 4, !tbaa !21
  %15 = load ptr, ptr %7, align 8, !tbaa !19
  %16 = zext i32 %14 to i64
  %17 = shl nuw nsw i64 %16, 3
  %18 = tail call ptr @uprv_realloc_77(ptr noundef %15, i64 noundef %17) #17
  store ptr %18, ptr %7, align 8, !tbaa !19
  br label %19

thread-pre-split.i:                               ; preds = %6
  %.pr.i = load ptr, ptr %7, align 8, !tbaa !19
  br label %19

19:                                               ; preds = %thread-pre-split.i, %13
  %20 = phi ptr [ %.pr.i, %thread-pre-split.i ], [ %18, %13 ]
  %.not.i = icmp eq ptr %20, null
  br i1 %.not.i, label %26, label %21

21:                                               ; preds = %19
  %22 = load i32, ptr %8, align 8, !tbaa !20
  %23 = add i32 %22, 1
  %24 = zext i32 %22 to i64
  %25 = getelementptr inbounds nuw ptr, ptr %20, i64 %24
  store ptr %2, ptr %25, align 8, !tbaa !25
  br label %_ZN6icu_7710NFRuleList3addEPNS_6NFRuleE.exit

26:                                               ; preds = %19
  store i32 0, ptr %10, align 4, !tbaa !21
  br label %_ZN6icu_7710NFRuleList3addEPNS_6NFRuleE.exit

_ZN6icu_7710NFRuleList3addEPNS_6NFRuleE.exit:     ; preds = %21, %26
  %.sink.i = phi i32 [ 0, %26 ], [ %23, %21 ]
  store i32 %.sink.i, ptr %8, align 8, !tbaa !20
  br label %27

27:                                               ; preds = %_ZN6icu_7710NFRuleList3addEPNS_6NFRuleE.exit, %4
  %28 = getelementptr inbounds nuw i8, ptr %0, i64 88
  %29 = sext i32 %1 to i64
  %30 = getelementptr inbounds [6 x ptr], ptr %28, i64 0, i64 %29
  %31 = load ptr, ptr %30, align 8, !tbaa !25
  %32 = icmp eq ptr %31, null
  br i1 %32, label %.sink.split, label %33

33:                                               ; preds = %27
  %34 = getelementptr inbounds nuw i8, ptr %0, i64 136
  %35 = load ptr, ptr %34, align 8, !tbaa !8
  %36 = tail call noundef ptr @_ZNK6icu_7721RuleBasedNumberFormat23getDecimalFormatSymbolsEv(ptr noundef nonnull align 8 dereferenceable(456) %35)
  call void @llvm.lifetime.start.p0(i64 64, ptr nonnull %5) #15
  %37 = getelementptr inbounds nuw i8, ptr %36, i64 8
  call void @_ZN6icu_7713UnicodeStringC1ERKS0_(ptr noundef nonnull align 8 dereferenceable(64) %5, ptr noundef nonnull align 8 dereferenceable(64) %37)
  %38 = getelementptr inbounds nuw i8, ptr %5, i64 8
  %39 = load i16, ptr %38, align 8, !tbaa !6
  %40 = icmp slt i16 %39, 0
  %41 = ashr i16 %39, 5
  %42 = sext i16 %41 to i32
  %43 = getelementptr inbounds nuw i8, ptr %5, i64 12
  %44 = load i32, ptr %43, align 4
  %45 = select i1 %40, i32 %44, i32 %42
  %.not12 = icmp eq i32 %45, 0
  br i1 %.not12, label %_ZNK6icu_7713UnicodeString6charAtEi.exit, label %46

46:                                               ; preds = %33
  %47 = and i16 %39, 2
  %.not.i.i.i = icmp eq i16 %47, 0
  %48 = getelementptr inbounds nuw i8, ptr %5, i64 10
  %49 = getelementptr inbounds nuw i8, ptr %5, i64 24
  %50 = load ptr, ptr %49, align 8
  %51 = select i1 %.not.i.i.i, ptr %50, ptr %48
  %52 = load i16, ptr %51, align 2, !tbaa !29
  br label %_ZNK6icu_7713UnicodeString6charAtEi.exit

_ZNK6icu_7713UnicodeString6charAtEi.exit:         ; preds = %46, %33
  %.0.i.i = phi i16 [ %52, %46 ], [ -1, %33 ]
  %53 = getelementptr inbounds nuw i8, ptr %2, i64 14
  %54 = load i16, ptr %53, align 2, !tbaa !48
  %55 = icmp eq i16 %.0.i.i, %54
  call void @_ZN6icu_7713UnicodeStringD1Ev(ptr noundef nonnull align 8 dereferenceable(64) %5) #15
  call void @llvm.lifetime.end.p0(i64 64, ptr nonnull %5) #15
  br i1 %55, label %.sink.split, label %56

.sink.split:                                      ; preds = %_ZNK6icu_7713UnicodeString6charAtEi.exit, %27
  store ptr %2, ptr %30, align 8, !tbaa !25
  br label %56

56:                                               ; preds = %.sink.split, %_ZNK6icu_7713UnicodeString6charAtEi.exit
  ret void
}